target datalayout = "e-m:e-p270:32:32-p271:32:32-p272:64:64-i64:64-i128:128-f80:128-n8:16:32:64-S128"
target triple = "x86_64-unknown-linux-gnu"

%"class.std::__cxx11::basic_string" = type { %"struct.std::__cxx11::basic_string<char>::_Alloc_hider", i64, %union.anon }
%"struct.std::__cxx11::basic_string<char>::_Alloc_hider" = type { ptr }
%union.anon = type { i64, [8 x i8] }
%"class.rocksdb::FSRandomAccessFile" = type { ptr }
%"class.rocksdb::PosixMmapReadableFile" = type { %"class.rocksdb::FSRandomAccessFile", i32, %"class.std::__cxx11::basic_string", ptr, i64 }

@stdout = external global ptr, align 8
@.str.27 = private unnamed_addr constant [33 x i8] c"failed to munmap %p length %zu \0A\00", align 1

; Function Attrs: mustprogress nounwind uwtable
define linkonce_odr void @_ZN7rocksdb18FSRandomAccessFileD2Ev(ptr noundef nonnull align 8 dereferenceable(8) %this) unnamed_addr #3 comdat align 2 {
entry:
  %this.addr = alloca ptr, align 8
  store ptr %this, ptr %this.addr, align 8
  ret void
}

; Function Attrs: mustprogress nounwind uwtable
define void @_ZN7rocksdb21PosixMmapReadableFileD2Ev(ptr noundef nonnull align 8 dereferenceable(64) %this) unnamed_addr #3 align 2 personality ptr @__gxx_personality_v0 {
entry:
  %this.addr = alloca ptr, align 8
  %ret = alloca i32, align 4
  store ptr %this, ptr %this.addr, align 8
  %this1 = load ptr, ptr %this.addr, align 8
  store ptr getelementptr inbounds ({ [14 x ptr] }, ptr @_ZTVN7rocksdb21PosixMmapReadableFileE, i32 0, i32 0, i32 2), ptr %this1, align 8
  %mmapped_region_ = getelementptr inbounds %"class.rocksdb::PosixMmapReadableFile", ptr %this1, i32 0, i32 3
  %0 = load ptr, ptr %mmapped_region_, align 8
  %length_ = getelementptr inbounds %"class.rocksdb::PosixMmapReadableFile", ptr %this1, i32 0, i32 4
  %1 = load i64, ptr %length_, align 8
  %call = call i32 @munmap(ptr noundef %0, i64 noundef %1) #15
  store i32 %call, ptr %ret, align 4
  %2 = load i32, ptr %ret, align 4
  %cmp = icmp ne i32 %2, 0
  br i1 %cmp, label %if.then, label %if.end

if.then:                                          ; preds = %entry
  %3 = load ptr, ptr @stdout, align 8
  %mmapped_region_2 = getelementptr inbounds %"class.rocksdb::PosixMmapReadableFile", ptr %this1, i32 0, i32 3
  %4 = load ptr, ptr %mmapped_region_2, align 8
  %length_3 = getelementptr inbounds %"class.rocksdb::PosixMmapReadableFile", ptr %this1, i32 0, i32 4
  %5 = load i64, ptr %length_3, align 8
  %call4 = invoke i32 (ptr, ptr, ...) @fprintf(ptr noundef %3, ptr noundef @.str.27, ptr noundef %4, i64 noundef %5)
          to label %invoke.cont unwind label %terminate.lpad

invoke.cont:                                      ; preds = %if.then
  br label %if.end

if.end:                                           ; preds = %invoke.cont, %entry
  %fd_ = getelementptr inbounds %"class.rocksdb::PosixMmapReadableFile", ptr %this1, i32 0, i32 1
  %6 = load i32, ptr %fd_, align 8
  %call6 = invoke i32 @close(i32 noundef %6)
          to label %invoke.cont5 unwind label %terminate.lpad

invoke.cont5:                                     ; preds = %if.end
  %filename_ = getelementptr inbounds %"class.rocksdb::PosixMmapReadableFile", ptr %this1, i32 0, i32 2
  call void @_ZNSt7__cxx1112basic_stringIcSt11char_traitsIcESaIcEED1Ev(ptr noundef nonnull align 8 dereferenceable(32) %filename_) #15
  call void @_ZN7rocksdb18FSRandomAccessFileD2Ev(ptr noundef nonnull align 8 dereferenceable(8) %this1) #15
  ret void

terminate.lpad:                                   ; preds = %if.end, %if.then
  %7 = landingpad { ptr, i32 }
          catch ptr null
  %8 = extractvalue { ptr, i32 } %7, 0
  call void @__clang_call_terminate(ptr %8) #17
  unreachable
}