; Function Attrs: mustprogress nounwind uwtable
define void @_ZN7rocksdb21PosixMmapReadableFileD2Ev(ptr noundef nonnull align 8 dereferenceable(64) %this) unnamed_addr #3 align 2 personality ptr @__gxx_personality_v0 {
entry:
  store ptr getelementptr inbounds ({ [14 x ptr] }, ptr @_ZTVN7rocksdb21PosixMmapReadableFileE, i64 0, i32 0, i64 2), ptr %this, align 8
  %mmapped_region_ = getelementptr inbounds i8, ptr %this, i64 48
  %0 = load ptr, ptr %mmapped_region_, align 8
  %length_ = getelementptr inbounds i8, ptr %this, i64 56
  %1 = load i64, ptr %length_, align 8
  %call = tail call i32 @munmap(ptr noundef %0, i64 noundef %1) #25
  %cmp.not = icmp eq i32 %call, 0
  br i1 %cmp.not, label %if.end, label %if.then

if.then:                                          ; preds = %entry
  %2 = load ptr, ptr @stdout, align 8
  %3 = load ptr, ptr %mmapped_region_, align 8
  %4 = load i64, ptr %length_, align 8
  %call4 = tail call i32 (ptr, ptr, ...) @fprintf(ptr noundef %2, ptr noundef nonnull @.str.27, ptr noundef %3, i64 noundef %4)
  br label %if.end

if.end:                                           ; preds = %if.then, %entry
  %fd_ = getelementptr inbounds i8, ptr %this, i64 8
  %5 = load i32, ptr %fd_, align 8
  %call6 = invoke i32 @close(i32 noundef %5)
          to label %invoke.cont5 unwind label %terminate.lpad

invoke.cont5:                                     ; preds = %if.end
  %filename_ = getelementptr inbounds i8, ptr %this, i64 16
  tail call void @_ZNSt7__cxx1112basic_stringIcSt11char_traitsIcESaIcEED1Ev(ptr noundef nonnull align 8 dereferenceable(32) %filename_) #25
  ret void

terminate.lpad:                                   ; preds = %if.end
  %6 = landingpad { ptr, i32 }
          catch ptr null
  %7 = extractvalue { ptr, i32 } %6, 0
  tail call void @__clang_call_terminate(ptr %7) #28
  unreachable
}